target datalayout = "e-m:e-p270:32:32-p271:32:32-p272:64:64-i64:64-i128:128-f80:128-n8:16:32:64-S128"
target triple = "x86_64-pc-linux-gnu"

@hf_nfs4_open_share_access = internal global i32 0, align 4
@hf_nfs4_want_flags = internal global i32 0, align 4
@hf_nfs4_want_notify_flags = internal global i32 0, align 4
@hf_nfs4_want_signal_deleg_when_resrc_avail = internal global i32 0, align 4
@hf_nfs4_want_push_deleg_when_uncontended = internal global i32 0, align 4
@ett_nfs4_want_notify_flags = internal global i32 0, align 4

; Function Attrs: null_pointer_is_valid sspstrong uwtable
define internal i32 @dissect_nfs4_open_share_access(ptr noundef %0, i32 noundef %1, ptr noundef %2) #0 {
  %4 = alloca ptr, align 8
  %5 = alloca i32, align 4
  %6 = alloca ptr, align 8
  %7 = alloca ptr, align 8
  %8 = alloca ptr, align 8
  %9 = alloca i32, align 4
  %10 = alloca i32, align 4
  %11 = alloca i32, align 4
  store ptr %0, ptr %4, align 8
  store i32 %1, ptr %5, align 4
  store ptr %2, ptr %6, align 8
  call void @llvm.lifetime.start.p0(i64 8, ptr %7) #16
  call void @llvm.lifetime.start.p0(i64 8, ptr %8) #16
  call void @llvm.lifetime.start.p0(i64 4, ptr %9) #16
  call void @llvm.lifetime.start.p0(i64 4, ptr %10) #16
  call void @llvm.lifetime.start.p0(i64 4, ptr %11) #16
  %12 = load ptr, ptr %4, align 8
  %13 = load i32, ptr %5, align 4
  %14 = call i32 @tvb_get_ntohl(ptr noundef %12, i32 noundef %13)
  store i32 %14, ptr %11, align 4
  %15 = load i32, ptr %11, align 4
  %16 = and i32 %15, 3
  store i32 %16, ptr %9, align 4
  %17 = load i32, ptr %11, align 4
  %18 = and i32 %17, 65280
  store i32 %18, ptr %10, align 4
  %19 = load i32, ptr %11, align 4
  %20 = and i32 %19, 1245184
  store i32 %20, ptr %11, align 4
  %21 = load ptr, ptr %6, align 8
  %22 = load i32, ptr @hf_nfs4_open_share_access, align 4
  %23 = load ptr, ptr %4, align 8
  %24 = load i32, ptr %5, align 4
  %25 = load i32, ptr %9, align 4
  %26 = call ptr @proto_tree_add_uint(ptr noundef %21, i32 noundef %22, ptr noundef %23, i32 noundef %24, i32 noundef 4, i32 noundef %25)
  %27 = load i32, ptr %10, align 4
  %28 = icmp ne i32 %27, 0
  br i1 %28, label %29, label %36

29:                                               ; preds = %3
  %30 = load ptr, ptr %6, align 8
  %31 = load i32, ptr @hf_nfs4_want_flags, align 4
  %32 = load ptr, ptr %4, align 8
  %33 = load i32, ptr %5, align 4
  %34 = load i32, ptr %10, align 4
  %35 = call ptr @proto_tree_add_uint(ptr noundef %30, i32 noundef %31, ptr noundef %32, i32 noundef %33, i32 noundef 4, i32 noundef %34)
  br label %36

36:                                               ; preds = %29, %3
  %37 = load i32, ptr %11, align 4
  %38 = icmp ne i32 %37, 0
  br i1 %38, label %39, label %59

39:                                               ; preds = %36
  %40 = load ptr, ptr %6, align 8
  %41 = load i32, ptr @hf_nfs4_want_notify_flags, align 4
  %42 = load ptr, ptr %4, align 8
  %43 = load i32, ptr %5, align 4
  %44 = load i32, ptr %11, align 4
  %45 = call ptr @proto_tree_add_uint(ptr noundef %40, i32 noundef %41, ptr noundef %42, i32 noundef %43, i32 noundef 4, i32 noundef %44)
  store ptr %45, ptr %7, align 8
  %46 = load ptr, ptr %7, align 8
  %47 = load i32, ptr @ett_nfs4_want_notify_flags, align 4
  %48 = call ptr @proto_item_add_subtree(ptr noundef %46, i32 noundef %47)
  store ptr %48, ptr %8, align 8
  %49 = load ptr, ptr %8, align 8
  %50 = load i32, ptr @hf_nfs4_want_signal_deleg_when_resrc_avail, align 4
  %51 = load ptr, ptr %4, align 8
  %52 = load i32, ptr %5, align 4
  %53 = call ptr @proto_tree_add_item(ptr noundef %49, i32 noundef %50, ptr noundef %51, i32 noundef %52, i32 noundef 4, i32 noundef 0)
  %54 = load ptr, ptr %8, align 8
  %55 = load i32, ptr @hf_nfs4_want_push_deleg_when_uncontended, align 4
  %56 = load ptr, ptr %4, align 8
  %57 = load i32, ptr %5, align 4
  %58 = call ptr @proto_tree_add_item(ptr noundef %54, i32 noundef %55, ptr noundef %56, i32 noundef %57, i32 noundef 4, i32 noundef 0)
  br label %59

59:                                               ; preds = %39, %36
  %60 = load i32, ptr %5, align 4
  %61 = add i32 %60, 4
  store i32 %61, ptr %5, align 4
  %62 = load i32, ptr %5, align 4
  call void @llvm.lifetime.end.p0(i64 4, ptr %11) #16
  call void @llvm.lifetime.end.p0(i64 4, ptr %10) #16
  call void @llvm.lifetime.end.p0(i64 4, ptr %9) #16
  call void @llvm.lifetime.end.p0(i64 8, ptr %8) #16
  call void @llvm.lifetime.end.p0(i64 8, ptr %7) #16
  ret i32 %62
}