; Function Attrs: null_pointer_is_valid sspstrong uwtable
define internal fastcc noundef i32 @dissect_nfs4_open_share_access(ptr noundef %0, i32 noundef %1, ptr noundef %2) unnamed_addr #0 {
  %4 = tail call i32 @tvb_get_ntohl(ptr noundef %0, i32 noundef %1)
  %5 = and i32 %4, 3
  %6 = and i32 %4, 65280
  %7 = and i32 %4, 1245184
  %8 = load i32, ptr @hf_nfs4_open_share_access, align 4
  %9 = tail call ptr @proto_tree_add_uint(ptr noundef %2, i32 noundef %8, ptr noundef %0, i32 noundef %1, i32 noundef 4, i32 noundef %5)
  %.not = icmp eq i32 %6, 0
  br i1 %.not, label %13, label %10

10:                                               ; preds = %3
  %11 = load i32, ptr @hf_nfs4_want_flags, align 4
  %12 = tail call ptr @proto_tree_add_uint(ptr noundef %2, i32 noundef %11, ptr noundef %0, i32 noundef %1, i32 noundef 4, i32 noundef %6)
  br label %13

13:                                               ; preds = %10, %3
  %.not28 = icmp eq i32 %7, 0
  br i1 %.not28, label %23, label %14

14:                                               ; preds = %13
  %15 = load i32, ptr @hf_nfs4_want_notify_flags, align 4
  %16 = tail call ptr @proto_tree_add_uint(ptr noundef %2, i32 noundef %15, ptr noundef %0, i32 noundef %1, i32 noundef 4, i32 noundef %7)
  %17 = load i32, ptr @ett_nfs4_want_notify_flags, align 4
  %18 = tail call ptr @proto_item_add_subtree(ptr noundef %16, i32 noundef %17)
  %19 = load i32, ptr @hf_nfs4_want_signal_deleg_when_resrc_avail, align 4
  %20 = tail call ptr @proto_tree_add_item(ptr noundef %18, i32 noundef %19, ptr noundef %0, i32 noundef %1, i32 noundef 4, i32 noundef 0)
  %21 = load i32, ptr @hf_nfs4_want_push_deleg_when_uncontended, align 4
  %22 = tail call ptr @proto_tree_add_item(ptr noundef %18, i32 noundef %21, ptr noundef %0, i32 noundef %1, i32 noundef 4, i32 noundef 0)
  br label %23

23:                                               ; preds = %14, %13
  %24 = add i32 %1, 4
  ret i32 %24
}